(dp0
S'modified_by'
p1
(dp2
S'rname'
p3
S'"modified_by"'
p4
sS'sortable'
p5
I12
sS'raw_rname'
p6
S'modified_by'
p7
sS'notnull'
p8
I00
sS'length'
p9
I512
sS'sql'
p10
S'INTEGER REFERENCES "auth_user" ("id") ON DELETE CASCADE  '
p11
sS'unique'
p12
I00
sS'type'
p13
S'reference auth_user'
p14
ssS'updated_by'
p15
(dp16
S'rname'
p17
S'"Updated_by"'
p18
sS'sortable'
p19
I8
sS'raw_rname'
p20
S'Updated_by'
p21
sS'notnull'
p22
I00
sS'length'
p23
I512
sS'sql'
p24
S'INTEGER REFERENCES "auth_user" ("id") ON DELETE CASCADE  '
p25
sS'unique'
p26
I00
sS'type'
p27
S'reference auth_user'
p28
ssS'platform'
p29
(dp30
S'rname'
p31
S'"platform"'
p32
sS'sortable'
p33
I5
sS'raw_rname'
p34
S'platform'
p35
sS'notnull'
p36
I00
sS'length'
p37
I512
sS'sql'
p38
S'CHAR(512)'
p39
sS'unique'
p40
I00
sS'type'
p41
S'string'
p42
ssS'mobile'
p43
(dp44
g3
S'"Mobile"'
p45
sg5
I4
sg6
S'Mobile'
p46
sg8
I00
sg9
I512
sg10
S'CHAR(512)'
p47
sg12
I00
sg13
S'string'
p48
ssS'enroll_date'
p49
(dp50
g3
S'"Enroll_Date"'
p51
sg5
I2
sg6
S'Enroll_Date'
p52
sg8
I00
sg9
I512
sg10
S'DATE'
p53
sg12
I00
sg13
S'date'
p54
ssS'is_active'
p55
(dp56
g3
S'"is_active"'
p57
sg5
I8
sg6
S'is_active'
p58
sg8
I00
sg9
I512
sg10
S'CHAR(1)'
p59
sg12
I00
sg13
S'boolean'
p60
ssS'batch'
p61
(dp62
g3
S'"Batch"'
p63
sg5
I6
sg6
S'Batch'
p64
sg8
I00
sg9
I512
sg10
S'CHAR(512)'
p65
sg12
I00
sg13
g48
ssS'created_by'
p66
(dp67
g3
S'"created_by"'
p68
sg5
I10
sg6
S'created_by'
p69
sg8
I00
sg9
I512
sg10
S'INTEGER REFERENCES "auth_user" ("id") ON DELETE CASCADE  '
p70
sg12
I00
sg13
g14
ssS'id'
p71
(dp72
g3
S'"id"'
p73
sg5
I1
sg6
S'id'
p74
sg8
I00
sg9
I512
sg10
S'INTEGER PRIMARY KEY AUTOINCREMENT'
p75
sg12
I00
sg13
g74
ssS'course'
p76
(dp77
g31
S'"Course"'
p78
sg33
I4
sg34
S'Course'
p79
sg36
I00
sg37
I512
sg38
S'CHAR(512)'
p80
sg40
I00
sg41
g42
ssS'en_source'
p81
(dp82
g3
S'"En_Source"'
p83
sg5
I7
sg6
S'En_Source'
p84
sg8
I00
sg9
I512
sg10
S'CHAR(512)'
p85
sg12
I00
sg13
g48
ssS'created_on'
p86
(dp87
g3
S'"created_on"'
p88
sg5
I9
sg6
S'created_on'
p89
sg8
I00
sg9
I512
sg10
S'TIMESTAMP'
p90
sg12
I00
sg13
S'datetime'
p91
ssS'modified_on'
p92
(dp93
g3
S'"modified_on"'
p94
sg5
I11
sg6
S'modified_on'
p95
sg8
I00
sg9
I512
sg10
S'TIMESTAMP'
p96
sg12
I00
sg13
g91
ssS'student_name'
p97
(dp98
g3
S'"Student_name"'
p99
sg5
I3
sg6
S'Student_name'
p100
sg8
I00
sg9
I512
sg10
S'CHAR(512)'
p101
sg12
I00
sg13
g48
ssS'email'
p102
(dp103
g3
S'"Email"'
p104
sg5
I5
sg6
S'Email'
p105
sg8
I00
sg9
I512
sg10
S'CHAR(512)'
p106
sg12
I00
sg13
g48
ss.