(dp0
S'modified_by'
p1
(dp2
S'rname'
p3
S'`modified_by`'
p4
sS'sortable'
p5
I12
sS'raw_rname'
p6
S'modified_by'
p7
sS'notnull'
p8
I00
sS'length'
p9
I512
sS'sql'
p10
S'INT  , INDEX `modified_by__idx` (`modified_by`), FOREIGN KEY (`modified_by`) REFERENCES `auth_user` (`id`) ON DELETE CASCADE'
p11
sS'unique'
p12
I00
sS'type'
p13
S'reference auth_user'
p14
ssS'mobile'
p15
(dp16
g3
S'`Mobile`'
p17
sg5
I4
sg6
S'Mobile'
p18
sg8
I00
sg9
I512
sg10
S'VARCHAR(512)'
p19
sg12
I00
sg13
S'string'
p20
ssS'is_active'
p21
(dp22
g3
S'`is_active`'
p23
sg5
I8
sg6
S'is_active'
p24
sg8
I00
sg9
I512
sg10
S'CHAR(1)'
p25
sg12
I00
sg13
S'boolean'
p26
ssS'enroll_date'
p27
(dp28
g3
S'`Enroll_Date`'
p29
sg5
I2
sg6
S'Enroll_Date'
p30
sg8
I00
sg9
I512
sg10
S'DATE'
p31
sg12
I00
sg13
S'date'
p32
ssS'batch'
p33
(dp34
g3
S'`Batch`'
p35
sg5
I6
sg6
S'Batch'
p36
sg8
I00
sg9
I512
sg10
S'VARCHAR(512)'
p37
sg12
I00
sg13
g20
ssS'created_by'
p38
(dp39
g3
S'`created_by`'
p40
sg5
I10
sg6
S'created_by'
p41
sg8
I00
sg9
I512
sg10
S'INT  , INDEX `created_by__idx` (`created_by`), FOREIGN KEY (`created_by`) REFERENCES `auth_user` (`id`) ON DELETE CASCADE'
p42
sg12
I00
sg13
g14
ssS'email'
p43
(dp44
g3
S'`Email`'
p45
sg5
I5
sg6
S'Email'
p46
sg8
I00
sg9
I512
sg10
S'VARCHAR(512)'
p47
sg12
I00
sg13
g20
ssS'en_source'
p48
(dp49
g3
S'`En_Source`'
p50
sg5
I7
sg6
S'En_Source'
p51
sg8
I00
sg9
I512
sg10
S'VARCHAR(512)'
p52
sg12
I00
sg13
g20
ssS'created_on'
p53
(dp54
g3
S'`created_on`'
p55
sg5
I9
sg6
S'created_on'
p56
sg8
I00
sg9
I512
sg10
S'DATETIME'
p57
sg12
I00
sg13
S'datetime'
p58
ssS'modified_on'
p59
(dp60
g3
S'`modified_on`'
p61
sg5
I11
sg6
S'modified_on'
p62
sg8
I00
sg9
I512
sg10
S'DATETIME'
p63
sg12
I00
sg13
g58
ssS'student_name'
p64
(dp65
g3
S'`Student_name`'
p66
sg5
I3
sg6
S'Student_name'
p67
sg8
I00
sg9
I512
sg10
S'VARCHAR(512)'
p68
sg12
I00
sg13
g20
ssS'id'
p69
(dp70
g3
S'`id`'
p71
sg5
I1
sg6
S'id'
p72
sg8
I00
sg9
I512
sg10
S'INT AUTO_INCREMENT NOT NULL'
p73
sg12
I00
sg13
g72
ss.